target datalayout = "e-m:e-p270:32:32-p271:32:32-p272:64:64-i64:64-i128:128-f80:128-n8:16:32:64-S128"
target triple = "x86_64-unknown-linux-gnu"

; Function Attrs: mustprogress nounwind uwtable
define hidden noundef i32 @_ZN6cineon13GenericHeader17DataSizeByteCountENS_8DataSizeE(i32 noundef %ds) #1 align 2 {
entry:
  %ds.addr = alloca i32, align 4
  %ret = alloca i32, align 4
  store i32 %ds, ptr %ds.addr, align 4
  store i32 0, ptr %ret, align 4
  %0 = load i32, ptr %ds.addr, align 4
  switch i32 %0, label %sw.epilog [
    i32 0, label %sw.bb
    i32 1, label %sw.bb1
    i32 2, label %sw.bb2
    i32 3, label %sw.bb3
  ]

sw.bb:                                            ; preds = %entry
  store i32 1, ptr %ret, align 4
  br label %sw.epilog

sw.bb1:                                           ; preds = %entry
  store i32 2, ptr %ret, align 4
  br label %sw.epilog

sw.bb2:                                           ; preds = %entry
  store i32 4, ptr %ret, align 4
  br label %sw.epilog

sw.bb3:                                           ; preds = %entry
  store i32 8, ptr %ret, align 4
  br label %sw.epilog

sw.epilog:                                        ; preds = %sw.bb3, %sw.bb2, %sw.bb1, %sw.bb, %entry
  %1 = load i32, ptr %ret, align 4
  ret i32 %1
}