; Function Attrs: mustprogress nofree norecurse nosync nounwind willreturn memory(none) uwtable
define hidden noundef i32 @_ZN6cineon13GenericHeader17DataSizeByteCountENS_8DataSizeE(i32 noundef %ds) local_unnamed_addr #5 align 2 {
entry:
  %0 = icmp ult i32 %ds, 4
  br i1 %0, label %switch.lookup, label %sw.epilog

switch.lookup:                                    ; preds = %entry
  %1 = zext nneg i32 %ds to i64
  %switch.gep = getelementptr inbounds [4 x i32], ptr @switch.table._ZN6cineon13GenericHeader17DataSizeByteCountENS_8DataSizeE, i64 0, i64 %1
  %switch.load = load i32, ptr %switch.gep, align 4
  br label %sw.epilog

sw.epilog:                                        ; preds = %switch.lookup, %entry
  %ret.0 = phi i32 [ 0, %entry ], [ %switch.load, %switch.lookup ]
  ret i32 %ret.0
}